GAS LISTING /tmp/ccDBz7jp.s 			page 1


   1              		.file	"ex6.c"
   2              		.text
   3              	.Ltext0:
   4              		.file 0 "/home/ginuram/projects/C_lan/Chapter_9/excercise_6" "ex6.c"
   5              		.globl	removeString
   6              		.type	removeString, @function
   7              	removeString:
   8              	.LFB0:
   9              		.file 1 "ex6.c"
   1:ex6.c         **** #include <stdio.h>
   2:ex6.c         **** 
   3:ex6.c         **** void removeString(char source[], int start, int count)
   4:ex6.c         **** {
  10              		.loc 1 4 1
  11              		.cfi_startproc
  12 0000 F30F1EFA 		endbr64
  13 0004 55       		pushq	%rbp
  14              		.cfi_def_cfa_offset 16
  15              		.cfi_offset 6, -16
  16 0005 4889E5   		movq	%rsp, %rbp
  17              		.cfi_def_cfa_register 6
  18 0008 48897DE8 		movq	%rdi, -24(%rbp)
  19 000c 8975E4   		movl	%esi, -28(%rbp)
  20 000f 8955E0   		movl	%edx, -32(%rbp)
   5:ex6.c         ****     int i = 0, j = 0;
  21              		.loc 1 5 9
  22 0012 C745F800 		movl	$0, -8(%rbp)
  22      000000
  23              		.loc 1 5 16
  24 0019 C745FC00 		movl	$0, -4(%rbp)
  24      000000
   6:ex6.c         **** 
   7:ex6.c         ****     while (source[i] != '\0') {
  25              		.loc 1 7 11
  26 0020 EB3C     		jmp	.L2
  27              	.L5:
   8:ex6.c         ****         if (i < start || i >= start + count) {
  28              		.loc 1 8 12
  29 0022 8B45F8   		movl	-8(%rbp), %eax
  30 0025 3B45E4   		cmpl	-28(%rbp), %eax
  31 0028 7C0D     		jl	.L3
  32              		.loc 1 8 37 discriminator 1
  33 002a 8B55E4   		movl	-28(%rbp), %edx
  34 002d 8B45E0   		movl	-32(%rbp), %eax
  35 0030 01D0     		addl	%edx, %eax
  36              		.loc 1 8 23 discriminator 1
  37 0032 3945F8   		cmpl	%eax, -8(%rbp)
  38 0035 7C23     		jl	.L4
  39              	.L3:
   9:ex6.c         ****             source[j] = source[i];
  40              		.loc 1 9 31
  41 0037 8B45F8   		movl	-8(%rbp), %eax
  42 003a 4863D0   		movslq	%eax, %rdx
  43 003d 488B45E8 		movq	-24(%rbp), %rax
  44 0041 4801D0   		addq	%rdx, %rax
  45              		.loc 1 9 19
  46 0044 8B55FC   		movl	-4(%rbp), %edx
GAS LISTING /tmp/ccDBz7jp.s 			page 2


  47 0047 4863CA   		movslq	%edx, %rcx
  48 004a 488B55E8 		movq	-24(%rbp), %rdx
  49 004e 4801CA   		addq	%rcx, %rdx
  50              		.loc 1 9 31
  51 0051 0FB600   		movzbl	(%rax), %eax
  52              		.loc 1 9 23
  53 0054 8802     		movb	%al, (%rdx)
  10:ex6.c         ****             j++;
  54              		.loc 1 10 14
  55 0056 8345FC01 		addl	$1, -4(%rbp)
  56              	.L4:
  11:ex6.c         ****         }
  12:ex6.c         ****         i++;
  57              		.loc 1 12 10
  58 005a 8345F801 		addl	$1, -8(%rbp)
  59              	.L2:
   7:ex6.c         ****         if (i < start || i >= start + count) {
  60              		.loc 1 7 18
  61 005e 8B45F8   		movl	-8(%rbp), %eax
  62 0061 4863D0   		movslq	%eax, %rdx
  63 0064 488B45E8 		movq	-24(%rbp), %rax
  64 0068 4801D0   		addq	%rdx, %rax
  65 006b 0FB600   		movzbl	(%rax), %eax
   7:ex6.c         ****         if (i < start || i >= start + count) {
  66              		.loc 1 7 22
  67 006e 84C0     		testb	%al, %al
  68 0070 75B0     		jne	.L5
  13:ex6.c         ****     }
  14:ex6.c         **** 
  15:ex6.c         ****     source[j] = '\0'; //have to include the null terminator at the end otherwise the loop wont know
  69              		.loc 1 15 11
  70 0072 8B45FC   		movl	-4(%rbp), %eax
  71 0075 4863D0   		movslq	%eax, %rdx
  72 0078 488B45E8 		movq	-24(%rbp), %rax
  73 007c 4801D0   		addq	%rdx, %rax
  74              		.loc 1 15 15
  75 007f C60000   		movb	$0, (%rax)
  16:ex6.c         **** }
  76              		.loc 1 16 1
  77 0082 90       		nop
  78 0083 5D       		popq	%rbp
  79              		.cfi_def_cfa 7, 8
  80 0084 C3       		ret
  81              		.cfi_endproc
  82              	.LFE0:
  83              		.size	removeString, .-removeString
  84              		.globl	main
  85              		.type	main, @function
  86              	main:
  87              	.LFB1:
  17:ex6.c         **** 
  18:ex6.c         **** int main(void)
  19:ex6.c         **** {
  88              		.loc 1 19 1
  89              		.cfi_startproc
  90 0085 F30F1EFA 		endbr64
  91 0089 55       		pushq	%rbp
GAS LISTING /tmp/ccDBz7jp.s 			page 3


  92              		.cfi_def_cfa_offset 16
  93              		.cfi_offset 6, -16
  94 008a 4889E5   		movq	%rsp, %rbp
  95              		.cfi_def_cfa_register 6
  96 008d 4883EC20 		subq	$32, %rsp
  97              		.loc 1 19 1
  98 0091 64488B04 		movq	%fs:40, %rax
  98      25280000 
  98      00
  99 009a 488945F8 		movq	%rax, -8(%rbp)
 100 009e 31C0     		xorl	%eax, %eax
  20:ex6.c         ****     char text[] = "the wrong son";
 101              		.loc 1 20 10
 102 00a0 48B87468 		movabsq	$7957704922557147252, %rax
 102      65207772 
 102      6F6E
 103 00aa 488945EA 		movq	%rax, -22(%rbp)
 104 00ae 48B86F6E 		movabsq	$31084787693743727, %rax
 104      6720736F 
 104      6E00
 105 00b8 488945F0 		movq	%rax, -16(%rbp)
  21:ex6.c         **** 
  22:ex6.c         ****     removeString(text, 4, 6);
 106              		.loc 1 22 5
 107 00bc 488D45EA 		leaq	-22(%rbp), %rax
 108 00c0 BA060000 		movl	$6, %edx
 108      00
 109 00c5 BE040000 		movl	$4, %esi
 109      00
 110 00ca 4889C7   		movq	%rax, %rdi
 111 00cd E8000000 		call	removeString
 111      00
  23:ex6.c         **** 
  24:ex6.c         ****     printf("%s\n", text);
 112              		.loc 1 24 5
 113 00d2 488D45EA 		leaq	-22(%rbp), %rax
 114 00d6 4889C7   		movq	%rax, %rdi
 115 00d9 E8000000 		call	puts@PLT
 115      00
  25:ex6.c         **** 
  26:ex6.c         ****     return 0;
 116              		.loc 1 26 12
 117 00de B8000000 		movl	$0, %eax
 117      00
  27:ex6.c         **** }...
 118              		.loc 1 27 1
 119 00e3 488B55F8 		movq	-8(%rbp), %rdx
 120 00e7 64482B14 		subq	%fs:40, %rdx
 120      25280000 
 120      00
 121 00f0 7405     		je	.L8
 122 00f2 E8000000 		call	__stack_chk_fail@PLT
 122      00
 123              	.L8:
 124 00f7 C9       		leave
 125              		.cfi_def_cfa 7, 8
 126 00f8 C3       		ret
GAS LISTING /tmp/ccDBz7jp.s 			page 4


 127              		.cfi_endproc
 128              	.LFE1:
 129              		.size	main, .-main
 130              	.Letext0:
 490 0039 2F686F6D 		.section	.note.GNU-stack,"",@progbits
 490      652F6769 
 490      6E757261 
 490      6D2F7072 
 490      6F6A6563 
 491              		.section	.note.gnu.property,"a"
 492              		.align 8
 493 0000 04000000 		.long	1f - 0f
 494 0004 10000000 		.long	4f - 1f
 495 0008 05000000 		.long	5
 496              	0:
 497 000c 474E5500 		.string	"GNU"
 498              	1:
 499              		.align 8
 500 0010 020000C0 		.long	0xc0000002
 501 0014 04000000 		.long	3f - 2f
 502              	2:
 503 0018 03000000 		.long	0x3
 504              	3:
 505 001c 00000000 		.align 8
 506              	4:
GAS LISTING /tmp/ccDBz7jp.s 			page 12

